target datalayout = "e-m:e-p270:32:32-p271:32:32-p272:64:64-i64:64-i128:128-f80:128-n8:16:32:64-S128"
target triple = "x86_64-pc-linux-gnu"

; Function Attrs: nounwind uwtable
define internal void @exchange_int16s(ptr noundef %0, ptr noundef %1, i64 noundef %2) #0 {
  %4 = alloca ptr, align 8
  %5 = alloca ptr, align 8
  %6 = alloca i64, align 8
  %7 = alloca ptr, align 8
  %8 = alloca ptr, align 8
  %9 = alloca i16, align 2
  store ptr %0, ptr %4, align 8
  store ptr %1, ptr %5, align 8
  store i64 %2, ptr %6, align 8
  %10 = load ptr, ptr %4, align 8
  store ptr %10, ptr %7, align 8
  %11 = load ptr, ptr %5, align 8
  store ptr %11, ptr %8, align 8
  %12 = load i64, ptr %6, align 8
  %13 = udiv i64 %12, 2
  store i64 %13, ptr %6, align 8
  br label %14

14:                                               ; preds = %18, %3
  %15 = load i64, ptr %6, align 8
  %16 = add i64 %15, -1
  store i64 %16, ptr %6, align 8
  %17 = icmp ne i64 %15, 0
  br i1 %17, label %18, label %28

18:                                               ; preds = %14
  %19 = load ptr, ptr %7, align 8
  %20 = load i16, ptr %19, align 2
  store i16 %20, ptr %9, align 2
  %21 = load ptr, ptr %8, align 8
  %22 = load i16, ptr %21, align 2
  %23 = load ptr, ptr %7, align 8
  %24 = getelementptr i16, ptr %23, i32 1
  store ptr %24, ptr %7, align 8
  store i16 %22, ptr %23, align 2
  %25 = load i16, ptr %9, align 2
  %26 = load ptr, ptr %8, align 8
  %27 = getelementptr i16, ptr %26, i32 1
  store ptr %27, ptr %8, align 8
  store i16 %25, ptr %26, align 2
  br label %14, !llvm.loop !23

28:                                               ; preds = %14
  ret void
}